target datalayout = "e-m:e-p270:32:32-p271:32:32-p272:64:64-i64:64-i128:128-f80:128-n8:16:32:64-S128"
target triple = "x86_64-pc-linux-gnu"

%struct.nstime_t = type { i64, i32 }
%struct._packet_info = type { ptr, ptr, i32, i32, %struct.nstime_t, %struct.nstime_t, %struct.nstime_t, i8, ptr, ptr, ptr, ptr, %struct._address, %struct._address, %struct._address, %struct._address, %struct._address, %struct._address, i32, ptr, i8, [3 x i8], %struct.anon, i32, i32, i32, i32, ptr, i8, ptr, ptr, i16, i16, i32, i32, i16, i32, i32, ptr, ptr, ptr, i8, i8, i16, i16, i16, i32, i16, i16, ptr, ptr, ptr, ptr, ptr, i32, i32 }
%struct._address = type { i32, i32, ptr, ptr }
%struct.anon = type { i8, [3 x i8] }

@hf_afp_pad = internal global i32 0, align 4
@hf_afp_file_bitmap = internal global i32 0, align 4
@hf_afp_ofork = internal global i32 0, align 4
@ett_afp_file_bitmap = internal global i32 0, align 4
@.str.1056 = private unnamed_addr constant [10 x i8] c": Fork=%u\00", align 1

; Function Attrs: null_pointer_is_valid sspstrong uwtable
define internal zeroext i16 @decode_file_bitmap(ptr noundef %0, ptr noundef %1, i32 noundef %2) #1 {
  %4 = alloca ptr, align 8
  %5 = alloca ptr, align 8
  %6 = alloca i32, align 4
  %7 = alloca i16, align 2
  store ptr %0, ptr %4, align 8
  store ptr %1, ptr %5, align 8
  store i32 %2, ptr %6, align 4
  call void @llvm.lifetime.start.p0(i64 2, ptr %7) #8
  %8 = load ptr, ptr %4, align 8
  %9 = load ptr, ptr %5, align 8
  %10 = load i32, ptr %6, align 4
  %11 = load i32, ptr @hf_afp_file_bitmap, align 4
  %12 = load i32, ptr @ett_afp_file_bitmap, align 4
  %13 = call ptr @proto_tree_add_bitmask(ptr noundef %8, ptr noundef %9, i32 noundef %10, i32 noundef %11, i32 noundef %12, ptr noundef @decode_file_bitmap.bitmaps, i32 noundef 0)
  %14 = load ptr, ptr %5, align 8
  %15 = load i32, ptr %6, align 4
  %16 = call zeroext i16 @tvb_get_ntohs(ptr noundef %14, i32 noundef %15)
  store i16 %16, ptr %7, align 2
  %17 = load i16, ptr %7, align 2
  call void @llvm.lifetime.end.p0(i64 2, ptr %7) #8
  ret i16 %17
}

; Function Attrs: null_pointer_is_valid sspstrong uwtable
define internal void @add_info_fork(ptr noundef %0, ptr noundef %1, i32 noundef %2) #1 {
  %4 = alloca ptr, align 8
  %5 = alloca ptr, align 8
  %6 = alloca i32, align 4
  %7 = alloca i16, align 2
  store ptr %0, ptr %4, align 8
  store ptr %1, ptr %5, align 8
  store i32 %2, ptr %6, align 4
  call void @llvm.lifetime.start.p0(i64 2, ptr %7) #8
  %8 = load ptr, ptr %4, align 8
  %9 = load i32, ptr %6, align 4
  %10 = call zeroext i16 @tvb_get_ntohs(ptr noundef %8, i32 noundef %9)
  store i16 %10, ptr %7, align 2
  %11 = load i16, ptr %7, align 2
  %12 = icmp ne i16 %11, 0
  br i1 %12, label %13, label %19

13:                                               ; preds = %3
  %14 = load ptr, ptr %5, align 8
  %15 = getelementptr inbounds nuw %struct._packet_info, ptr %14, i32 0, i32 1
  %16 = load ptr, ptr %15, align 8
  %17 = load i16, ptr %7, align 2
  %18 = zext i16 %17 to i32
  call void (ptr, i32, ptr, ...) @col_append_fstr(ptr noundef %16, i32 noundef 25, ptr noundef @.str.1056, i32 noundef %18)
  br label %19

19:                                               ; preds = %13, %3
  call void @llvm.lifetime.end.p0(i64 2, ptr %7) #8
  ret void
}

; Function Attrs: null_pointer_is_valid sspstrong uwtable
define internal i32 @dissect_query_afp_get_fork_param(ptr noundef %0, ptr noundef %1, ptr noundef %2, i32 noundef %3) #1 {
  %5 = alloca ptr, align 8
  %6 = alloca ptr, align 8
  %7 = alloca ptr, align 8
  %8 = alloca i32, align 4
  store ptr %0, ptr %5, align 8
  store ptr %1, ptr %6, align 8
  store ptr %2, ptr %7, align 8
  store i32 %3, ptr %8, align 4
  %9 = load ptr, ptr %7, align 8
  %10 = load i32, ptr @hf_afp_pad, align 4
  %11 = load ptr, ptr %5, align 8
  %12 = load i32, ptr %8, align 4
  %13 = call ptr @proto_tree_add_item(ptr noundef %9, i32 noundef %10, ptr noundef %11, i32 noundef %12, i32 noundef 1, i32 noundef 0)
  %14 = load i32, ptr %8, align 4
  %15 = add i32 %14, 1
  store i32 %15, ptr %8, align 4
  %16 = load ptr, ptr %5, align 8
  %17 = load ptr, ptr %6, align 8
  %18 = load i32, ptr %8, align 4
  call void @add_info_fork(ptr noundef %16, ptr noundef %17, i32 noundef %18)
  %19 = load ptr, ptr %7, align 8
  %20 = load i32, ptr @hf_afp_ofork, align 4
  %21 = load ptr, ptr %5, align 8
  %22 = load i32, ptr %8, align 4
  %23 = call ptr @proto_tree_add_item(ptr noundef %19, i32 noundef %20, ptr noundef %21, i32 noundef %22, i32 noundef 2, i32 noundef 0)
  %24 = load i32, ptr %8, align 4
  %25 = add i32 %24, 2
  store i32 %25, ptr %8, align 4
  %26 = load ptr, ptr %7, align 8
  %27 = load ptr, ptr %5, align 8
  %28 = load i32, ptr %8, align 4
  %29 = call zeroext i16 @decode_file_bitmap(ptr noundef %26, ptr noundef %27, i32 noundef %28)
  %30 = load i32, ptr %8, align 4
  %31 = add i32 %30, 2
  store i32 %31, ptr %8, align 4
  %32 = load i32, ptr %8, align 4
  ret i32 %32
}